; Function Attrs: mustprogress uwtable
define noundef range(i64 0, 2049) i64 @_ZN6duckdb12ColumnReader15ReadPageHeadersEmNS_12optional_ptrIKNS_11TableFilterELb1EEE(ptr noundef nonnull align 8 dereferenceable(544) %0, i64 noundef %1, ptr %2) local_unnamed_addr #3 align 2 {
  %4 = getelementptr inbounds nuw i8, ptr %0, i64 56
  %5 = load i64, ptr %4, align 8, !tbaa !88
  %6 = icmp eq i64 %5, 0
  br i1 %6, label %.lr.ph, label %._crit_edge

.lr.ph:                                           ; preds = %3, %.lr.ph
  tail call void @_ZN6duckdb12ColumnReader11PrepareReadENS_12optional_ptrIKNS_11TableFilterELb1EEE(ptr noundef nonnull align 8 dereferenceable(544) %0, ptr %2)
  %7 = load i64, ptr %4, align 8, !tbaa !88
  %8 = icmp eq i64 %7, 0
  br i1 %8, label %.lr.ph, label %._crit_edge, !llvm.loop !380

._crit_edge:                                      ; preds = %.lr.ph, %3
  %.lcssa = phi i64 [ %5, %3 ], [ %7, %.lr.ph ]
  %9 = tail call noundef i64 @llvm.umin.i64(i64 %1, i64 %.lcssa)
  %10 = tail call noundef i64 @llvm.umin.i64(i64 %9, i64 2048)
  ret i64 %10
}